Certificate:
    Data:
        Version: 3 (0x2)
        Serial Number: 64 (0x40)
        Signature Algorithm: sha256WithRSAEncryption
        Issuer: C=US, O=Google, OU=Enterprise, CN=Single Root CA
        Validity
            Not Before: Jan 14 02:14:18 2025 GMT
            Not After : Jan 14 02:14:18 2035 GMT
        Subject: C=US, O=Google, OU=Enterprise, CN=proxy.domain.com
        Subject Public Key Info:
            Public Key Algorithm: rsaEncryption
                Public-Key: (2048 bit)
                Modulus:
                    00:db:5f:5f:bb:46:76:78:03:94:14:37:c6:b7:92:
                    40:cd:55:a0:1e:78:2c:1f:81:b8:ae:f3:fc:66:36:
                    d8:9a:9d:64:c8:a1:b6:73:16:9f:d9:80:11:4b:22:
                    7b:c2:65:95:84:6c:1b:0f:05:97:bc:1b:5c:bd:a3:
                    2a:cb:e2:81:6e:89:fa:b8:bd:d9:c4:fd:57:aa:db:
                    6c:e4:72:d2:44:3b:34:76:42:1b:b9:95:92:4c:71:
                    e0:13:f2:ce:50:84:e4:0f:ce:59:d7:d1:63:14:ac:
                    05:42:ec:51:65:34:b5:fa:83:2a:95:dd:7f:4f:e0:
                    27:af:5e:e8:a0:cf:82:13:4e:a7:47:b3:2a:92:fc:
                    7b:55:29:8a:d5:4f:ab:76:ad:26:c4:de:18:9c:ca:
                    fd:72:19:5e:75:43:eb:e6:49:d2:e6:66:4c:1e:6c:
                    3b:3d:5a:2c:d8:cc:20:24:dc:92:54:a6:fe:94:18:
                    b7:e0:ba:b0:3c:74:8d:02:0e:a4:46:62:cf:cc:1c:
                    9f:5c:73:3a:20:38:09:97:92:c0:32:ae:0e:6d:a2:
                    44:15:c8:83:c3:7e:8a:49:c0:4f:a1:72:b0:af:8c:
                    e4:d2:d9:f7:26:a3:54:2c:26:48:fd:bc:7b:ef:e9:
                    08:29:11:53:ec:fa:ad:7c:27:0c:5e:30:2e:57:2d:
                    43:a3
                Exponent: 65537 (0x10001)
        X509v3 extensions:
            X509v3 Key Usage: critical
                Digital Signature
            X509v3 Basic Constraints: 
                CA:FALSE
            X509v3 Extended Key Usage: 
                TLS Web Server Authentication
            X509v3 Subject Key Identifier: 
                18:FA:FE:20:83:9B:41:92:EF:C3:15:5C:F4:8C:A6:36:8B:6E:F1:AA
            X509v3 Authority Key Identifier: 
                EC:F0:EA:53:53:3F:9F:23:DC:C1:0E:31:10:37:07:DE:DE:E7:6E:F3
            Authority Information Access: 
                CA Issuers - URI:http://pki.esodemoapp2.com/ca/root-ca.cer
            X509v3 CRL Distribution Points: 
                Full Name:
                  URI:http://pki.esodemoapp2.com/ca/root-ca.crl

            X509v3 Subject Alternative Name: 
                DNS:proxy.domain.com
    Signature Algorithm: sha256WithRSAEncryption
    Signature Value:
        a9:bf:16:eb:46:12:d9:e7:0a:fb:8c:07:ee:c5:11:38:48:2f:
        af:e7:6b:0f:9e:c4:59:6c:5d:de:4a:f1:7b:58:1d:25:91:a4:
        a6:6b:ef:17:f3:86:30:cd:03:92:04:cf:e9:41:d4:89:7a:5d:
        23:10:9c:90:51:de:68:0a:8f:a5:87:26:46:95:27:a2:a7:2c:
        07:7c:40:15:82:a6:1c:9e:51:0b:c9:d9:18:4a:c8:0e:9e:a8:
        06:cb:ce:81:cd:d3:01:e2:d8:11:f5:8e:76:9b:a0:e8:69:b0:
        43:4b:f5:31:93:69:52:7c:94:4b:57:08:74:ee:2b:19:f2:43:
        95:8a:24:e9:55:05:85:78:b6:e0:59:a3:6f:cb:31:f6:34:21:
        75:7e:60:9f:40:0e:60:67:28:d4:15:86:8c:77:18:ca:d8:4e:
        ec:8e:08:f7:64:7f:8c:d5:b7:78:64:ff:6c:8c:49:56:43:74:
        b7:45:2c:66:35:fd:e4:ad:b6:da:94:d7:d0:77:a2:78:7c:80:
        ff:51:b5:79:7d:fa:ed:02:3c:1e:f9:95:f8:7a:9d:b3:55:45:
        5e:43:ba:df:d8:90:f4:2b:d9:e6:04:94:85:64:90:54:20:eb:
        e4:aa:3c:f3:7e:43:ac:a3:47:99:88:b0:f6:d7:b4:99:f7:c1:
        11:66:3b:dd
-----BEGIN CERTIFICATE-----
MIIEKzCCAxOgAwIBAgIBQDANBgkqhkiG9w0BAQsFADBMMQswCQYDVQQGEwJVUzEP
MA0GA1UECgwGR29vZ2xlMRMwEQYDVQQLDApFbnRlcnByaXNlMRcwFQYDVQQDDA5T
aW5nbGUgUm9vdCBDQTAeFw0yNTAxMTQwMjE0MThaFw0zNTAxMTQwMjE0MThaME4x
CzAJBgNVBAYTAlVTMQ8wDQYDVQQKDAZHb29nbGUxEzARBgNVBAsMCkVudGVycHJp
c2UxGTAXBgNVBAMMEHByb3h5LmRvbWFpbi5jb20wggEiMA0GCSqGSIb3DQEBAQUA
A4IBDwAwggEKAoIBAQDbX1+7RnZ4A5QUN8a3kkDNVaAeeCwfgbiu8/xmNtianWTI
obZzFp/ZgBFLInvCZZWEbBsPBZe8G1y9oyrL4oFuifq4vdnE/Veq22zkctJEOzR2
Qhu5lZJMceAT8s5QhOQPzlnX0WMUrAVC7FFlNLX6gyqV3X9P4CevXuigz4ITTqdH
syqS/HtVKYrVT6t2rSbE3hicyv1yGV51Q+vmSdLmZkwebDs9WizYzCAk3JJUpv6U
GLfgurA8dI0CDqRGYs/MHJ9cczogOAmXksAyrg5tokQVyIPDfopJwE+hcrCvjOTS
2fcmo1QsJkj9vHvv6QgpEVPs+q18JwxeMC5XLUOjAgMBAAGjggEUMIIBEDAOBgNV
HQ8BAf8EBAMCB4AwCQYDVR0TBAIwADATBgNVHSUEDDAKBggrBgEFBQcDATAdBgNV
HQ4EFgQUGPr+IIObQZLvwxVc9IymNotu8aowHwYDVR0jBBgwFoAU7PDqU1M/nyPc
wQ4xEDcH3t7nbvMwRQYIKwYBBQUHAQEEOTA3MDUGCCsGAQUFBzAChilodHRwOi8v
cGtpLmVzb2RlbW9hcHAyLmNvbS9jYS9yb290LWNhLmNlcjA6BgNVHR8EMzAxMC+g
LaArhilodHRwOi8vcGtpLmVzb2RlbW9hcHAyLmNvbS9jYS9yb290LWNhLmNybDAb
BgNVHREEFDASghBwcm94eS5kb21haW4uY29tMA0GCSqGSIb3DQEBCwUAA4IBAQCp
vxbrRhLZ5wr7jAfuxRE4SC+v52sPnsRZbF3eSvF7WB0lkaSma+8X84YwzQOSBM/p
QdSJel0jEJyQUd5oCo+lhyZGlSeipywHfEAVgqYcnlELydkYSsgOnqgGy86BzdMB
4tgR9Y52m6DoabBDS/Uxk2lSfJRLVwh07isZ8kOViiTpVQWFeLbgWaNvyzH2NCF1
fmCfQA5gZyjUFYaMdxjK2E7sjgj3ZH+M1bd4ZP9sjElWQ3S3RSxmNf3krbbalNfQ
d6J4fID/UbV5ffrtAjwe+ZX4ep2zVUVeQ7rf2JD0K9nmBJSFZJBUIOvkqjzzfkOs
o0eZiLD217SZ98ERZjvd
-----END CERTIFICATE-----
